target datalayout = "e-m:e-p270:32:32-p271:32:32-p272:64:64-i64:64-i128:128-f80:128-n8:16:32:64-S128"
target triple = "x86_64-pc-linux-gnu"

%struct.dt_pthread_mutex_t = type { %union.pthread_mutex_t }
%union.pthread_mutex_t = type { %struct.__pthread_mutex_s }
%struct.__pthread_mutex_s = type { i32, i32, i32, i32, i32, i16, i16, %struct.__pthread_internal_list }
%struct.__pthread_internal_list = type { ptr, ptr }
%struct.dt_mipmap_buffer_t = type { i32, i32, i32, i32, float, ptr, i32, i32, ptr }
%struct.dt_mipmap_cache_t = type { [11 x i32], [11 x i32], [11 x i64], %struct.dt_mipmap_cache_one_t, %struct.dt_mipmap_cache_one_t, %struct.dt_mipmap_cache_one_t, [4096 x i8] }
%struct.dt_mipmap_cache_one_t = type { %struct.dt_cache_t, i64, i64, i64, i64, i64 }
%struct.dt_cache_t = type { %struct.dt_pthread_mutex_t, i64, i64, i64, ptr, ptr, ptr, ptr, ptr, ptr }

; Function Attrs: nounwind uwtable
define internal ptr @_get_cache(ptr noundef %0, i32 noundef %1) #0 {
  %3 = alloca ptr, align 8
  %4 = alloca ptr, align 8
  %5 = alloca i32, align 4
  store ptr %0, ptr %4, align 8, !tbaa !50
  store i32 %1, ptr %5, align 4, !tbaa !43
  %6 = load i32, ptr %5, align 4, !tbaa !43
  switch i32 %6, label %13 [
    i32 10, label %7
    i32 9, label %10
  ]

7:                                                ; preds = %2
  %8 = load ptr, ptr %4, align 8, !tbaa !50
  %9 = getelementptr inbounds nuw %struct.dt_mipmap_cache_t, ptr %8, i32 0, i32 5
  store ptr %9, ptr %3, align 8
  br label %16

10:                                               ; preds = %2
  %11 = load ptr, ptr %4, align 8, !tbaa !50
  %12 = getelementptr inbounds nuw %struct.dt_mipmap_cache_t, ptr %11, i32 0, i32 4
  store ptr %12, ptr %3, align 8
  br label %16

13:                                               ; preds = %2
  %14 = load ptr, ptr %4, align 8, !tbaa !50
  %15 = getelementptr inbounds nuw %struct.dt_mipmap_cache_t, ptr %14, i32 0, i32 3
  store ptr %15, ptr %3, align 8
  br label %16

16:                                               ; preds = %13, %10, %7
  %17 = load ptr, ptr %3, align 8
  ret ptr %17
}

; Function Attrs: nounwind uwtable
define void @dt_mipmap_cache_release_with_caller(ptr noundef %0, ptr noundef %1, ptr noundef %2, i32 noundef %3) #0 {
  %5 = alloca ptr, align 8
  %6 = alloca ptr, align 8
  %7 = alloca ptr, align 8
  %8 = alloca i32, align 4
  store ptr %0, ptr %5, align 8, !tbaa !50
  store ptr %1, ptr %6, align 8, !tbaa !6
  store ptr %2, ptr %7, align 8, !tbaa !85
  store i32 %3, ptr %8, align 4, !tbaa !43
  %9 = load ptr, ptr %6, align 8, !tbaa !6
  %10 = getelementptr inbounds nuw %struct.dt_mipmap_buffer_t, ptr %9, i32 0, i32 0
  %11 = load i32, ptr %10, align 8, !tbaa !169
  %12 = icmp eq i32 %11, 11
  br i1 %12, label %13, label %14

13:                                               ; preds = %4
  br label %30

14:                                               ; preds = %4
  %15 = load ptr, ptr %5, align 8, !tbaa !50
  %16 = load ptr, ptr %6, align 8, !tbaa !6
  %17 = getelementptr inbounds nuw %struct.dt_mipmap_buffer_t, ptr %16, i32 0, i32 0
  %18 = load i32, ptr %17, align 8, !tbaa !169
  %19 = call ptr @_get_cache(ptr noundef %15, i32 noundef %18)
  %20 = getelementptr inbounds nuw %struct.dt_mipmap_cache_one_t, ptr %19, i32 0, i32 0
  %21 = load ptr, ptr %6, align 8, !tbaa !6
  %22 = getelementptr inbounds nuw %struct.dt_mipmap_buffer_t, ptr %21, i32 0, i32 8
  %23 = load ptr, ptr %22, align 8, !tbaa !28
  %24 = load ptr, ptr %7, align 8, !tbaa !85
  %25 = load i32, ptr %8, align 4, !tbaa !43
  call void @dt_cache_release_with_caller(ptr noundef %20, ptr noundef %23, ptr noundef %24, i32 noundef %25)
  %26 = load ptr, ptr %6, align 8, !tbaa !6
  %27 = getelementptr inbounds nuw %struct.dt_mipmap_buffer_t, ptr %26, i32 0, i32 0
  store i32 11, ptr %27, align 8, !tbaa !169
  %28 = load ptr, ptr %6, align 8, !tbaa !6
  %29 = getelementptr inbounds nuw %struct.dt_mipmap_buffer_t, ptr %28, i32 0, i32 5
  store ptr null, ptr %29, align 8, !tbaa !11
  br label %30

30:                                               ; preds = %14, %13
  ret void
}