; Function Attrs: nounwind uwtable
define void @dt_mipmap_cache_release_with_caller(ptr noundef %0, ptr noundef captures(none) %1, ptr noundef %2, i32 noundef %3) local_unnamed_addr #3 {
  %5 = load i32, ptr %1, align 8, !tbaa !154
  %6 = icmp eq i32 %5, 11
  br i1 %6, label %12, label %7

7:                                                ; preds = %4
  %switch.selectcmp.i = icmp eq i32 %5, 9
  %switch.select.i = select i1 %switch.selectcmp.i, i64 328, i64 176
  %switch.selectcmp4.i = icmp eq i32 %5, 10
  %switch.select5.i = select i1 %switch.selectcmp4.i, i64 480, i64 %switch.select.i
  %8 = getelementptr inbounds nuw i8, ptr %0, i64 %switch.select5.i
  %9 = getelementptr inbounds nuw i8, ptr %1, i64 40
  %10 = load ptr, ptr %9, align 8, !tbaa !22
  tail call void @dt_cache_release_with_caller(ptr noundef nonnull %8, ptr noundef %10, ptr noundef %2, i32 noundef %3) #19
  store i32 11, ptr %1, align 8, !tbaa !154
  %11 = getelementptr inbounds nuw i8, ptr %1, i64 24
  store ptr null, ptr %11, align 8, !tbaa !6
  br label %12

12:                                               ; preds = %4, %7
  ret void
}